target datalayout = "e-m:e-p270:32:32-p271:32:32-p272:64:64-i64:64-i128:128-f80:128-n8:16:32:64-S128"
target triple = "x86_64-pc-linux-gnu"

%"class.tbb::detail::r1::basic_tls" = type { i32 }
%"class.tbb::detail::r1::thread_data" = type { %"struct.tbb::detail::d1::intrusive_list_node", i16, i8, i8, ptr, ptr, ptr, ptr, %"class.tbb::detail::r1::mail_inbox", %"class.tbb::detail::r1::FastRandom", ptr, ptr, ptr, i32, ptr, %"class.tbb::detail::d1::task_group_context" }
%"struct.tbb::detail::d1::intrusive_list_node" = type { ptr, ptr }
%"class.tbb::detail::r1::mail_inbox" = type { ptr }
%"class.tbb::detail::r1::FastRandom" = type { i32, i32 }
%"class.tbb::detail::d1::task_group_context" = type { i64, %"struct.std::atomic.4", i8, %"struct.tbb::detail::d1::task_group_context::context_traits", %"struct.std::atomic.6", %"struct.std::atomic.8", %union.anon, ptr, %"struct.tbb::detail::d1::intrusive_list_node", %"struct.std::atomic.9", ptr, i64, [56 x i8] }
%"struct.std::atomic.4" = type { %"struct.std::__atomic_base.5" }
%"struct.std::__atomic_base.5" = type { i32 }
%"struct.tbb::detail::d1::task_group_context::context_traits" = type { i8 }
%"struct.std::atomic.6" = type { %"struct.std::__atomic_base.7" }
%"struct.std::__atomic_base.7" = type { i8 }
%"struct.std::atomic.8" = type { i8 }
%union.anon = type { ptr }
%"struct.std::atomic.9" = type { %"struct.std::__atomic_base.10" }
%"struct.std::__atomic_base.10" = type { ptr }
%"class.tbb::detail::d1::task_scheduler_handle" = type { ptr }
%"class.tbb::detail::r1::task_dispatcher" = type { ptr, %"struct.tbb::detail::r1::execution_data_ext", %"struct.tbb::detail::r1::task_dispatcher::properties", i64, ptr, %"class.std::unordered_map" }
%"struct.tbb::detail::r1::execution_data_ext" = type { %"struct.tbb::detail::d1::execution_data.base", ptr, i64, ptr }
%"struct.tbb::detail::d1::execution_data.base" = type <{ ptr, i16, i16 }>
%"struct.tbb::detail::r1::task_dispatcher::properties" = type { i8, i8, i8 }
%"class.std::unordered_map" = type { %"class.std::_Hashtable" }
%"class.std::_Hashtable" = type { ptr, i64, %"struct.std::__detail::_Hash_node_base", i64, %"struct.std::__detail::_Prime_rehash_policy", ptr }
%"struct.std::__detail::_Hash_node_base" = type { ptr }
%"struct.std::__detail::_Prime_rehash_policy" = type { float, i64 }

@_ZN3tbb6detail2r18governor6theTLSE = external global %"class.tbb::detail::r1::basic_tls", align 4
@__func__._ZN3tbb6detail2r113finalize_implERNS0_2d121task_scheduler_handleE = private unnamed_addr constant [14 x i8] c"finalize_impl\00", align 1
@.str.3 = private unnamed_addr constant [7 x i8] c"handle\00", align 1
@.str.4 = private unnamed_addr constant [36 x i8] c"trying to finalize with null handle\00", align 1

; Function Attrs: mustprogress nounwind sspstrong uwtable
define linkonce_odr noundef ptr @_ZN3tbb6detail2r19basic_tlsIPNS1_11thread_dataEE3getEv(ptr noundef nonnull align 4 dereferenceable(4) %0) #3 comdat align 2 {
  %2 = alloca ptr, align 8
  store ptr %0, ptr %2, align 8, !tbaa !9
  %3 = load ptr, ptr %2, align 8
  %4 = getelementptr inbounds nuw %"class.tbb::detail::r1::basic_tls", ptr %3, i32 0, i32 0
  %5 = load i32, ptr %4, align 4, !tbaa !86
  %6 = call ptr @pthread_getspecific(i32 noundef %5) #12
  ret ptr %6
}

; Function Attrs: mustprogress nounwind sspstrong uwtable
define linkonce_odr noundef ptr @_ZN3tbb6detail2r18governor30get_thread_data_if_initializedEv() #3 comdat align 2 {
  %1 = call noundef ptr @_ZN3tbb6detail2r19basic_tlsIPNS1_11thread_dataEE3getEv(ptr noundef nonnull align 4 dereferenceable(4) @_ZN3tbb6detail2r18governor6theTLSE)
  ret ptr %1
}

; Function Attrs: mustprogress nounwind sspstrong uwtable
define linkonce_odr noundef zeroext i1 @_ZNK3tbb6detail2d121task_scheduler_handlecvbEv(ptr noundef nonnull align 8 dereferenceable(8) %0) #3 comdat align 2 {
  %2 = alloca ptr, align 8
  store ptr %0, ptr %2, align 8, !tbaa !129
  %3 = load ptr, ptr %2, align 8
  %4 = getelementptr inbounds nuw %"class.tbb::detail::d1::task_scheduler_handle", ptr %3, i32 0, i32 0
  %5 = load ptr, ptr %4, align 8, !tbaa !131
  %6 = icmp ne ptr %5, null
  ret i1 %6
}

; Function Attrs: mustprogress sspstrong uwtable
define noundef zeroext i1 @_ZN3tbb6detail2r113finalize_implERNS0_2d121task_scheduler_handleE(ptr noundef nonnull align 8 dereferenceable(8) %0) #1 {
  %2 = alloca ptr, align 8
  %3 = alloca i8, align 1
  %4 = alloca ptr, align 8
  %5 = alloca ptr, align 8
  store ptr %0, ptr %2, align 8, !tbaa !129
  %6 = load ptr, ptr %2, align 8, !tbaa !129
  %7 = call noundef zeroext i1 @_ZNK3tbb6detail2d121task_scheduler_handlecvbEv(ptr noundef nonnull align 8 dereferenceable(8) %6) #12
  br i1 %7, label %8, label %9

8:                                                ; preds = %1
  br label %10

9:                                                ; preds = %1
  call void @_ZN3tbb6detail2r117assertion_failureEPKciS3_S3_(ptr noundef @__func__._ZN3tbb6detail2r113finalize_implERNS0_2d121task_scheduler_handleE, i32 noundef 300, ptr noundef @.str.3, ptr noundef @.str.4)
  br label %10

10:                                               ; preds = %9, %8
  call void @llvm.lifetime.start.p0(i64 1, ptr %3) #12
  store i8 1, ptr %3, align 1, !tbaa !7
  %11 = call noundef zeroext i1 @_ZN3tbb6detail2r117threading_control10is_presentEv()
  br i1 %11, label %12, label %43

12:                                               ; preds = %10
  call void @llvm.lifetime.start.p0(i64 8, ptr %4) #12
  %13 = call noundef ptr @_ZN3tbb6detail2r18governor30get_thread_data_if_initializedEv()
  store ptr %13, ptr %4, align 8, !tbaa !13
  %14 = load ptr, ptr %4, align 8, !tbaa !13
  %15 = icmp ne ptr %14, null
  br i1 %15, label %16, label %33

16:                                               ; preds = %12
  call void @llvm.lifetime.start.p0(i64 8, ptr %5) #12
  %17 = load ptr, ptr %4, align 8, !tbaa !13
  %18 = getelementptr inbounds nuw %"class.tbb::detail::r1::thread_data", ptr %17, i32 0, i32 4
  %19 = load ptr, ptr %18, align 8, !tbaa !107
  store ptr %19, ptr %5, align 8, !tbaa !95
  %20 = load ptr, ptr %5, align 8, !tbaa !95
  %21 = getelementptr inbounds nuw %"class.tbb::detail::r1::task_dispatcher", ptr %20, i32 0, i32 2
  %22 = getelementptr inbounds nuw %"struct.tbb::detail::r1::task_dispatcher::properties", ptr %21, i32 0, i32 0
  %23 = load i8, ptr %22, align 16, !tbaa !141, !range !84, !noundef !85
  %24 = trunc i8 %23 to i1
  br i1 %24, label %25, label %32

25:                                               ; preds = %16
  %26 = load ptr, ptr %4, align 8, !tbaa !13
  %27 = getelementptr inbounds nuw %"class.tbb::detail::r1::thread_data", ptr %26, i32 0, i32 2
  %28 = load i8, ptr %27, align 2, !tbaa !83, !range !84, !noundef !85
  %29 = trunc i8 %28 to i1
  br i1 %29, label %32, label %30

30:                                               ; preds = %25
  %31 = load ptr, ptr %4, align 8, !tbaa !13
  call void @_ZN3tbb6detail2r18governor14auto_terminateEPv(ptr noundef %31)
  br label %32

32:                                               ; preds = %30, %25, %16
  call void @llvm.lifetime.end.p0(i64 8, ptr %5) #12
  br label %33

33:                                               ; preds = %32, %12
  %34 = load ptr, ptr %2, align 8, !tbaa !129
  %35 = getelementptr inbounds nuw %"class.tbb::detail::d1::task_scheduler_handle", ptr %34, i32 0, i32 0
  %36 = load ptr, ptr %35, align 8, !tbaa !131
  %37 = call noundef zeroext i1 @_ZN3tbb6detail2r125remove_and_check_if_emptyERNS0_2d114global_controlE(ptr noundef nonnull align 8 dereferenceable(20) %36)
  br i1 %37, label %38, label %41

38:                                               ; preds = %33
  %39 = call noundef zeroext i1 @_ZN3tbb6detail2r117threading_control27unregister_lifetime_controlEb(i1 noundef zeroext true)
  %40 = zext i1 %39 to i8
  store i8 %40, ptr %3, align 1, !tbaa !7
  br label %42

41:                                               ; preds = %33
  store i8 0, ptr %3, align 1, !tbaa !7
  br label %42

42:                                               ; preds = %41, %38
  call void @llvm.lifetime.end.p0(i64 8, ptr %4) #12
  br label %43

43:                                               ; preds = %42, %10
  %44 = load i8, ptr %3, align 1, !tbaa !7, !range !84, !noundef !85
  %45 = trunc i8 %44 to i1
  call void @llvm.lifetime.end.p0(i64 1, ptr %3) #12
  ret i1 %45
}