; Function Attrs: mustprogress sspstrong uwtable
define noundef zeroext i1 @_ZN3tbb6detail2r113finalize_implERNS0_2d121task_scheduler_handleE(ptr noundef nonnull readonly align 8 captures(none) dereferenceable(8) %0) local_unnamed_addr #1 {
  %2 = load ptr, ptr %0, align 8, !tbaa !132
  %.not8 = icmp eq ptr %2, null
  br i1 %.not8, label %3, label %4

3:                                                ; preds = %1
  tail call void @_ZN3tbb6detail2r117assertion_failureEPKciS3_S3_(ptr noundef nonnull @__func__._ZN3tbb6detail2r113finalize_implERNS0_2d121task_scheduler_handleE, i32 noundef 300, ptr noundef nonnull @.str.3, ptr noundef nonnull @.str.4)
  br label %4

4:                                                ; preds = %1, %3
  %5 = tail call noundef zeroext i1 @_ZN3tbb6detail2r117threading_control10is_presentEv()
  br i1 %5, label %6, label %25

6:                                                ; preds = %4
  %7 = load i32, ptr @_ZN3tbb6detail2r18governor6theTLSE, align 4, !tbaa !73
  %8 = tail call noundef ptr @pthread_getspecific(i32 noundef %7) #8
  %.not = icmp eq ptr %8, null
  br i1 %.not, label %20, label %9

9:                                                ; preds = %6
  %10 = getelementptr inbounds nuw i8, ptr %8, i64 24
  %11 = load ptr, ptr %10, align 8, !tbaa !79
  %12 = getelementptr inbounds nuw i8, ptr %11, i64 48
  %13 = load i8, ptr %12, align 16, !tbaa !135, !range !77, !noundef !78
  %14 = trunc nuw i8 %13 to i1
  br i1 %14, label %15, label %20

15:                                               ; preds = %9
  %16 = getelementptr inbounds nuw i8, ptr %8, i64 18
  %17 = load i8, ptr %16, align 2, !tbaa !76, !range !77, !noundef !78
  %18 = trunc nuw i8 %17 to i1
  br i1 %18, label %20, label %19

19:                                               ; preds = %15
  tail call void @_ZN3tbb6detail2r18governor14auto_terminateEPv(ptr noundef nonnull %8)
  br label %20

20:                                               ; preds = %9, %15, %19, %6
  %21 = load ptr, ptr %0, align 8, !tbaa !132
  %22 = tail call noundef zeroext i1 @_ZN3tbb6detail2r125remove_and_check_if_emptyERNS0_2d114global_controlE(ptr noundef nonnull align 8 dereferenceable(20) %21)
  br i1 %22, label %23, label %25

23:                                               ; preds = %20
  %24 = tail call noundef zeroext i1 @_ZN3tbb6detail2r117threading_control27unregister_lifetime_controlEb(i1 noundef zeroext true)
  br label %25

25:                                               ; preds = %23, %20, %4
  %.0 = phi i1 [ true, %4 ], [ %24, %23 ], [ false, %20 ]
  ret i1 %.0
}